; Function Attrs: nounwind uwtable
define dso_local noundef zeroext i1 @php_output_handler_conflict(ptr noundef %0, i64 noundef %1, ptr noundef %2, i64 noundef %3) local_unnamed_addr #0 {
  %5 = load ptr, ptr getelementptr inbounds nuw (i8, ptr @output_globals, i64 24), align 8, !tbaa !46
  %.not.i10.i = icmp eq ptr %5, null
  br i1 %.not.i10.i, label %php_output_handler_started.exit.thread, label %php_output_get_level.exit.i

php_output_get_level.exit.i:                      ; preds = %4
  %6 = tail call i32 @zend_stack_count(ptr noundef nonnull @output_globals) #22
  %.not.i = icmp eq i32 %6, 0
  br i1 %.not.i, label %php_output_handler_started.exit.thread, label %7

7:                                                ; preds = %php_output_get_level.exit.i
  %8 = tail call ptr @zend_stack_base(ptr noundef nonnull @output_globals) #22
  %9 = icmp sgt i32 %6, 0
  br i1 %9, label %.lr.ph.preheader.i, label %php_output_handler_started.exit.thread

.lr.ph.preheader.i:                               ; preds = %7
  %wide.trip.count.i = zext nneg i32 %6 to i64
  br label %.lr.ph.i

.lr.ph.i:                                         ; preds = %zend_string_equals_cstr.exit.thread.i, %.lr.ph.preheader.i
  %indvars.iv.i = phi i64 [ 0, %.lr.ph.preheader.i ], [ %indvars.iv.next.i, %zend_string_equals_cstr.exit.thread.i ]
  %10 = getelementptr inbounds nuw ptr, ptr %8, i64 %indvars.iv.i
  %11 = load ptr, ptr %10, align 8, !tbaa !18
  %12 = load ptr, ptr %11, align 8, !tbaa !78
  %13 = getelementptr inbounds nuw i8, ptr %12, i64 16
  %14 = load i64, ptr %13, align 8, !tbaa !70
  %15 = icmp eq i64 %14, %3
  br i1 %15, label %zend_string_equals_cstr.exit.i, label %zend_string_equals_cstr.exit.thread.i

zend_string_equals_cstr.exit.i:                   ; preds = %.lr.ph.i
  %16 = getelementptr inbounds nuw i8, ptr %12, i64 24
  %bcmp.i.i = tail call i32 @bcmp(ptr nonnull %16, ptr readonly %2, i64 %3)
  %.not.i.i = icmp eq i32 %bcmp.i.i, 0
  br i1 %.not.i.i, label %php_output_handler_started.exit, label %zend_string_equals_cstr.exit.thread.i

zend_string_equals_cstr.exit.thread.i:            ; preds = %zend_string_equals_cstr.exit.i, %.lr.ph.i
  %indvars.iv.next.i = add nuw nsw i64 %indvars.iv.i, 1
  %exitcond.not.i = icmp eq i64 %indvars.iv.next.i, %wide.trip.count.i
  br i1 %exitcond.not.i, label %php_output_handler_started.exit.thread, label %.lr.ph.i

php_output_handler_started.exit:                  ; preds = %zend_string_equals_cstr.exit.i
  %.not = icmp eq i64 %1, %3
  br i1 %.not, label %17, label %18

17:                                               ; preds = %php_output_handler_started.exit
  %bcmp = tail call i32 @bcmp(ptr %0, ptr %2, i64 %3)
  %.not11 = icmp eq i32 %bcmp, 0
  br i1 %.not11, label %19, label %18

18:                                               ; preds = %17, %php_output_handler_started.exit
  tail call void (ptr, i32, ptr, ...) @php_error_docref(ptr noundef nonnull @.str, i32 noundef 2, ptr noundef nonnull @.str.2, ptr noundef %0, ptr noundef %2) #22
  br label %php_output_handler_started.exit.thread

19:                                               ; preds = %17
  tail call void (ptr, i32, ptr, ...) @php_error_docref(ptr noundef nonnull @.str, i32 noundef 2, ptr noundef nonnull @.str.3, ptr noundef %0) #22
  br label %php_output_handler_started.exit.thread

php_output_handler_started.exit.thread:           ; preds = %zend_string_equals_cstr.exit.thread.i, %7, %4, %php_output_get_level.exit.i, %18, %19
  %.0.i13 = phi i1 [ true, %18 ], [ true, %19 ], [ false, %php_output_get_level.exit.i ], [ false, %4 ], [ false, %7 ], [ false, %zend_string_equals_cstr.exit.thread.i ]
  ret i1 %.0.i13
}